; ModuleID = '20/1317.c'
source_filename = "20/1317.c"
target datalayout = "e-m:e-p270:32:32-p271:32:32-p272:64:64-i64:64-f80:128-n8:16:32:64-S128"
target triple = "x86_64-pc-linux-gnu"

@.str = private unnamed_addr constant [5 x i8] c"%s%s\00", align 1
@.str.1 = private unnamed_addr constant [4 x i8] c"%s\0A\00", align 1

; Function Attrs: noinline nounwind uwtable
define dso_local i32 @main() #0 {
  %1 = alloca i32, align 4
  %2 = alloca i32, align 4
  %3 = alloca i32, align 4
  %4 = alloca i32, align 4
  %5 = alloca [11 x i8], align 1
  %6 = alloca [4 x i8], align 1
  %7 = alloca i8, align 1
  %8 = alloca [20 x i8], align 16
  store i32 0, i32* %1, align 4
  store i32 0, i32* %4, align 4
  store i8 0, i8* %7, align 1
  br label %9

9:                                                ; preds = %96, %0
  %10 = getelementptr inbounds [11 x i8], [11 x i8]* %5, i64 0, i64 0
  %11 = getelementptr inbounds [4 x i8], [4 x i8]* %6, i64 0, i64 0
  %12 = call i32 (i8*, ...) @__isoc99_scanf(i8* getelementptr inbounds ([5 x i8], [5 x i8]* @.str, i64 0, i64 0), i8* %10, i8* %11)
  %13 = icmp ne i32 %12, -1
  br i1 %13, label %14, label %102

14:                                               ; preds = %9
  store i32 0, i32* %4, align 4
  store i8 0, i8* %7, align 1
  store i32 0, i32* %3, align 4
  store i32 0, i32* %2, align 4
  br label %15

15:                                               ; preds = %38, %14
  %16 = load i32, i32* %2, align 4
  %17 = sext i32 %16 to i64
  %18 = getelementptr inbounds [11 x i8], [11 x i8]* %5, i64 0, i64 0
  %19 = call i64 @strlen(i8* %18) #3
  %20 = sub i64 %19, 1
  %21 = icmp ule i64 %17, %20
  br i1 %21, label %22, label %41

22:                                               ; preds = %15
  %23 = load i32, i32* %2, align 4
  %24 = sext i32 %23 to i64
  %25 = getelementptr inbounds [11 x i8], [11 x i8]* %5, i64 0, i64 %24
  %26 = load i8, i8* %25, align 1
  %27 = sext i8 %26 to i32
  %28 = load i8, i8* %7, align 1
  %29 = sext i8 %28 to i32
  %30 = icmp sgt i32 %27, %29
  br i1 %30, label %31, label %37

31:                                               ; preds = %22
  %32 = load i32, i32* %2, align 4
  store i32 %32, i32* %4, align 4
  %33 = load i32, i32* %2, align 4
  %34 = sext i32 %33 to i64
  %35 = getelementptr inbounds [11 x i8], [11 x i8]* %5, i64 0, i64 %34
  %36 = load i8, i8* %35, align 1
  store i8 %36, i8* %7, align 1
  br label %37

37:                                               ; preds = %31, %22
  br label %38

38:                                               ; preds = %37
  %39 = load i32, i32* %2, align 4
  %40 = add nsw i32 %39, 1
  store i32 %40, i32* %2, align 4
  br label %15

41:                                               ; preds = %15
  store i32 0, i32* %2, align 4
  br label %42

42:                                               ; preds = %55, %41
  %43 = load i32, i32* %2, align 4
  %44 = load i32, i32* %4, align 4
  %45 = icmp sle i32 %43, %44
  br i1 %45, label %46, label %58

46:                                               ; preds = %42
  %47 = load i32, i32* %2, align 4
  %48 = sext i32 %47 to i64
  %49 = getelementptr inbounds [11 x i8], [11 x i8]* %5, i64 0, i64 %48
  %50 = load i8, i8* %49, align 1
  %51 = load i32, i32* %3, align 4
  %52 = add nsw i32 %51, 1
  store i32 %52, i32* %3, align 4
  %53 = sext i32 %51 to i64
  %54 = getelementptr inbounds [20 x i8], [20 x i8]* %8, i64 0, i64 %53
  store i8 %50, i8* %54, align 1
  br label %55

55:                                               ; preds = %46
  %56 = load i32, i32* %2, align 4
  %57 = add nsw i32 %56, 1
  store i32 %57, i32* %2, align 4
  br label %42

58:                                               ; preds = %42
  store i32 0, i32* %2, align 4
  br label %59

59:                                               ; preds = %71, %58
  %60 = load i32, i32* %2, align 4
  %61 = icmp sle i32 %60, 2
  br i1 %61, label %62, label %74

62:                                               ; preds = %59
  %63 = load i32, i32* %2, align 4
  %64 = sext i32 %63 to i64
  %65 = getelementptr inbounds [4 x i8], [4 x i8]* %6, i64 0, i64 %64
  %66 = load i8, i8* %65, align 1
  %67 = load i32, i32* %3, align 4
  %68 = add nsw i32 %67, 1
  store i32 %68, i32* %3, align 4
  %69 = sext i32 %67 to i64
  %70 = getelementptr inbounds [20 x i8], [20 x i8]* %8, i64 0, i64 %69
  store i8 %66, i8* %70, align 1
  br label %71

71:                                               ; preds = %62
  %72 = load i32, i32* %2, align 4
  %73 = add nsw i32 %72, 1
  store i32 %73, i32* %2, align 4
  br label %59

74:                                               ; preds = %59
  %75 = load i32, i32* %4, align 4
  %76 = add nsw i32 %75, 1
  store i32 %76, i32* %2, align 4
  br label %77

77:                                               ; preds = %93, %74
  %78 = load i32, i32* %2, align 4
  %79 = sext i32 %78 to i64
  %80 = getelementptr inbounds [11 x i8], [11 x i8]* %5, i64 0, i64 0
  %81 = call i64 @strlen(i8* %80) #3
  %82 = sub i64 %81, 1
  %83 = icmp ule i64 %79, %82
  br i1 %83, label %84, label %96

84:                                               ; preds = %77
  %85 = load i32, i32* %2, align 4
  %86 = sext i32 %85 to i64
  %87 = getelementptr inbounds [11 x i8], [11 x i8]* %5, i64 0, i64 %86
  %88 = load i8, i8* %87, align 1
  %89 = load i32, i32* %3, align 4
  %90 = add nsw i32 %89, 1
  store i32 %90, i32* %3, align 4
  %91 = sext i32 %89 to i64
  %92 = getelementptr inbounds [20 x i8], [20 x i8]* %8, i64 0, i64 %91
  store i8 %88, i8* %92, align 1
  br label %93

93:                                               ; preds = %84
  %94 = load i32, i32* %2, align 4
  %95 = add nsw i32 %94, 1
  store i32 %95, i32* %2, align 4
  br label %77

96:                                               ; preds = %77
  %97 = load i32, i32* %3, align 4
  %98 = sext i32 %97 to i64
  %99 = getelementptr inbounds [20 x i8], [20 x i8]* %8, i64 0, i64 %98
  store i8 0, i8* %99, align 1
  %100 = getelementptr inbounds [20 x i8], [20 x i8]* %8, i64 0, i64 0
  %101 = call i32 (i8*, ...) @printf(i8* getelementptr inbounds ([4 x i8], [4 x i8]* @.str.1, i64 0, i64 0), i8* %100)
  br label %9

102:                                              ; preds = %9
  %103 = load i32, i32* %1, align 4
  ret i32 %103
}

declare dso_local i32 @__isoc99_scanf(i8*, ...) #1

; Function Attrs: nounwind readonly
declare dso_local i64 @strlen(i8*) #2

declare dso_local i32 @printf(i8*, ...) #1


!llvm.module.flags = !{!0}
!llvm.ident = !{!1}

!0 = !{i32 1, !"wchar_size", i32 4}
!1 = !{!"clang version 10.0.0-4ubuntu1 "}
